target datalayout = "e-m:e-p270:32:32-p271:32:32-p272:64:64-i64:64-i128:128-f80:128-n8:16:32:64-S128"
target triple = "x86_64-pc-linux-gnu"

%struct.H5F_blk_aggr_t = type { i64, i64, i64, i64, i64 }

@.str = private unnamed_addr constant [102 x i8] c"generated/home/dtcxzyw/WorkSpace/Projects/compilers/llvm-opt-benchmark/bench/hdf5/hdf5/src/H5MFaggr.c\00", align 1
@H5E_RESOURCE_g = external global i64, align 8
@H5E_CANTFREE_g = external global i64, align 8
@.str.12 = private unnamed_addr constant [29 x i8] c"can't free aggregation block\00", align 1
@__func__.H5MF__aggr_free = private unnamed_addr constant [16 x i8] c"H5MF__aggr_free\00", align 1

; Function Attrs: nounwind uwtable
define internal i32 @H5MF__aggr_free(ptr noundef %0, i32 noundef %1, ptr noundef %2) #0 {
  %4 = alloca ptr, align 8
  %5 = alloca i32, align 4
  %6 = alloca ptr, align 8
  %7 = alloca i32, align 4
  %8 = alloca i8, align 1
  store ptr %0, ptr %4, align 8
  store i32 %1, ptr %5, align 4
  store ptr %2, ptr %6, align 8
  store i32 0, ptr %7, align 4
  store i8 0, ptr %8, align 1
  %9 = load ptr, ptr %4, align 8
  %10 = load i32, ptr %5, align 4
  %11 = load ptr, ptr %6, align 8
  %12 = getelementptr inbounds %struct.H5F_blk_aggr_t, ptr %11, i32 0, i32 4
  %13 = load i64, ptr %12, align 8
  %14 = load ptr, ptr %6, align 8
  %15 = getelementptr inbounds %struct.H5F_blk_aggr_t, ptr %14, i32 0, i32 3
  %16 = load i64, ptr %15, align 8
  %17 = call i32 @H5F__free(ptr noundef %9, i32 noundef %10, i64 noundef %13, i64 noundef %16)
  %18 = icmp slt i32 %17, 0
  br i1 %18, label %19, label %34

19:                                               ; preds = %3
  br label %20

20:                                               ; preds = %19
  br label %21

21:                                               ; preds = %20
  br label %22

22:                                               ; preds = %21
  %23 = load i64, ptr @H5E_RESOURCE_g, align 8
  %24 = load i64, ptr @H5E_CANTFREE_g, align 8
  %25 = call i32 (ptr, ptr, i32, i64, i64, ptr, ...) @H5E_printf_stack(ptr noundef @.str, ptr noundef @__func__.H5MF__aggr_free, i32 noundef 863, i64 noundef %23, i64 noundef %24, ptr noundef @.str.12)
  br label %26

26:                                               ; preds = %22
  store i8 1, ptr %8, align 1
  %27 = load i8, ptr %8, align 1
  %28 = trunc i8 %27 to i1
  %29 = zext i1 %28 to i8
  store i8 %29, ptr %8, align 1
  br label %30

30:                                               ; preds = %26
  br label %31

31:                                               ; preds = %30
  store i32 -1, ptr %7, align 4
  br label %41

32:                                               ; No predecessors!
  br label %33

33:                                               ; preds = %32
  br label %34

34:                                               ; preds = %33, %3
  %35 = load ptr, ptr %6, align 8
  %36 = getelementptr inbounds %struct.H5F_blk_aggr_t, ptr %35, i32 0, i32 2
  store i64 0, ptr %36, align 8
  %37 = load ptr, ptr %6, align 8
  %38 = getelementptr inbounds %struct.H5F_blk_aggr_t, ptr %37, i32 0, i32 4
  store i64 -1, ptr %38, align 8
  %39 = load ptr, ptr %6, align 8
  %40 = getelementptr inbounds %struct.H5F_blk_aggr_t, ptr %39, i32 0, i32 3
  store i64 0, ptr %40, align 8
  br label %41

41:                                               ; preds = %34, %31
  %42 = load i32, ptr %7, align 4
  ret i32 %42
}