; Function Attrs: nounwind uwtable
define internal fastcc range(i32 -1, 1) i32 @H5MF__aggr_free(ptr noundef %0, i32 noundef %1, ptr nocapture noundef %2) unnamed_addr #0 {
  %4 = getelementptr inbounds i8, ptr %2, i64 32
  %5 = load i64, ptr %4, align 8
  %6 = getelementptr inbounds i8, ptr %2, i64 24
  %7 = load i64, ptr %6, align 8
  %8 = tail call i32 @H5F__free(ptr noundef %0, i32 noundef %1, i64 noundef %5, i64 noundef %7) #6
  %9 = icmp slt i32 %8, 0
  br i1 %9, label %10, label %14

10:                                               ; preds = %3
  %11 = load i64, ptr @H5E_RESOURCE_g, align 8
  %12 = load i64, ptr @H5E_CANTFREE_g, align 8
  %13 = tail call i32 (ptr, ptr, i32, i64, i64, ptr, ...) @H5E_printf_stack(ptr noundef nonnull @.str, ptr noundef nonnull @__func__.H5MF__aggr_free, i32 noundef 863, i64 noundef %11, i64 noundef %12, ptr noundef nonnull @.str.12) #6
  br label %16

14:                                               ; preds = %3
  %15 = getelementptr inbounds i8, ptr %2, i64 16
  store i64 0, ptr %15, align 8
  store i64 -1, ptr %4, align 8
  store i64 0, ptr %6, align 8
  br label %16

16:                                               ; preds = %14, %10
  %.0 = phi i32 [ -1, %10 ], [ 0, %14 ]
  ret i32 %.0
}